; Function Attrs: mustprogress nounwind uwtable
define hidden void @_ZN9Arguments20add_patch_mod_prefixEPKcS1_Pb(ptr nocapture noundef readonly %0, ptr noundef %1, ptr nocapture noundef %2) local_unnamed_addr #0 align 2 {
  %4 = tail call i32 @strcmp(ptr noundef nonnull dereferenceable(1) %0, ptr noundef nonnull dereferenceable(10) @.str.250) #30
  %5 = icmp eq i32 %4, 0
  br i1 %5, label %6, label %11

6:                                                ; preds = %3
  %7 = load i8, ptr %2, align 1
  %8 = trunc i8 %7 to i1
  br i1 %8, label %9, label %10

9:                                                ; preds = %6
  tail call void @_Z29vm_exit_during_initializationPKcS0_(ptr noundef nonnull @.str.251, ptr noundef null) #31
  br label %11

10:                                               ; preds = %6
  store i8 1, ptr %2, align 1
  br label %11

11:                                               ; preds = %9, %10, %3
  %12 = load ptr, ptr @_ZN9Arguments17_patch_mod_prefixE, align 8
  %13 = icmp eq ptr %12, null
  br i1 %13, label %14, label %23

14:                                               ; preds = %11
  %15 = tail call noundef ptr @_ZN6AnyObjnwEm8MEMFLAGS(i64 noundef 24, i8 noundef zeroext 19) #31
  %16 = icmp eq ptr %15, null
  br i1 %16, label %22, label %17

17:                                               ; preds = %14
  %18 = tail call noundef ptr @_ZN27GrowableArrayCHeapAllocator8allocateEii8MEMFLAGS(i32 noundef 10, i32 noundef 8, i8 noundef zeroext 19) #31
  store i32 0, ptr %15, align 4
  %19 = getelementptr inbounds i8, ptr %15, i64 4
  store i32 10, ptr %19, align 4
  %20 = getelementptr inbounds i8, ptr %15, i64 8
  store ptr %18, ptr %20, align 8
  tail call void @llvm.memset.p0.i64(ptr noundef nonnull align 8 dereferenceable(80) %18, i8 0, i64 80, i1 false)
  %21 = getelementptr inbounds i8, ptr %15, i64 16
  store i64 39, ptr %21, align 8
  br label %22

22:                                               ; preds = %17, %14
  store ptr %15, ptr @_ZN9Arguments17_patch_mod_prefixE, align 8
  br label %23

23:                                               ; preds = %22, %11
  %24 = phi ptr [ %15, %22 ], [ %12, %11 ]
  %25 = tail call noundef ptr @_Z12AllocateHeapm8MEMFLAGSN17AllocFailStrategy13AllocFailEnumE(i64 noundef 16, i8 noundef zeroext 9, i32 noundef 0) #31
  tail call void @_ZN15ModulePatchPathC2EPKcS1_(ptr noundef nonnull align 8 dereferenceable(16) %25, ptr noundef %0, ptr noundef %1)
  %26 = load i32, ptr %24, align 8
  %27 = getelementptr inbounds i8, ptr %24, i64 4
  %28 = load i32, ptr %27, align 4
  %29 = icmp eq i32 %26, %28
  br i1 %29, label %30, label %_ZN26GrowableArrayWithAllocatorIP15ModulePatchPath13GrowableArrayIS1_EE4pushERKS1_.exit

30:                                               ; preds = %23
  %31 = add nsw i32 %26, 1
  %32 = icmp sgt i32 %26, -1
  %33 = xor i32 %26, -2147483648
  %34 = and i32 %33, %31
  %35 = icmp eq i32 %34, 0
  %36 = and i1 %32, %35
  %37 = tail call range(i32 0, 33) i32 @llvm.ctlz.i32(i32 %31, i1 true)
  %38 = sub nuw nsw i32 32, %37
  %39 = shl nuw i32 1, %38
  %.0.i.i.i.i.i = select i1 %36, i32 %31, i32 %39
  tail call void @_ZN26GrowableArrayWithAllocatorIP15ModulePatchPath13GrowableArrayIS1_EE9expand_toEi(ptr noundef nonnull align 8 dereferenceable(16) %24, i32 noundef %.0.i.i.i.i.i)
  %.pre.i.i = load i32, ptr %24, align 8
  br label %_ZN26GrowableArrayWithAllocatorIP15ModulePatchPath13GrowableArrayIS1_EE4pushERKS1_.exit

_ZN26GrowableArrayWithAllocatorIP15ModulePatchPath13GrowableArrayIS1_EE4pushERKS1_.exit: ; preds = %23, %30
  %40 = phi i32 [ %.pre.i.i, %30 ], [ %26, %23 ]
  %41 = add nsw i32 %40, 1
  store i32 %41, ptr %24, align 8
  %42 = getelementptr inbounds i8, ptr %24, i64 8
  %43 = load ptr, ptr %42, align 8
  %44 = sext i32 %40 to i64
  %45 = getelementptr inbounds ptr, ptr %43, i64 %44
  store ptr %25, ptr %45, align 8
  ret void
}